target datalayout = "e-m:e-p270:32:32-p271:32:32-p272:64:64-i64:64-i128:128-f80:128-n8:16:32:64-S128"
target triple = "x86_64-pc-linux-gnu"

%struct._zend_executor_globals = type { %struct._zval_struct, %struct._zval_struct, [32 x ptr], ptr, ptr, %struct._zend_array, %struct._zend_array, ptr, i32, i8, %struct._zval_struct, i32, ptr, ptr, ptr, ptr, ptr, ptr, i64, ptr, ptr, i32, ptr, i32, i64, i32, i32, i32, i8, i8, %struct.zend_atomic_bool_s, %struct.zend_atomic_bool_s, ptr, i64, ptr, ptr, %struct._zend_array, %struct._zend_array, i32, i8, %struct._zval_struct, %struct._zval_struct, %struct._zend_stack, %struct._zend_stack, %struct._zend_stack, ptr, i32, i32, i64, ptr, ptr, ptr, %struct._zend_objects_store, %struct._zend_lazy_objects_store, ptr, ptr, ptr, [3 x %struct._zend_op], ptr, i8, i8, i64, i32, i32, ptr, [16 x %struct._HashTableIterator], ptr, %union._zend_function, %struct._zend_op, %struct._zend_array, i64, %struct.zend_get_gc_buffer, ptr, ptr, ptr, i64, i8, i32, ptr, ptr, i64, %struct._zend_call_stack, i64, i64, %struct._zend_strtod_state, [6 x ptr] }
%struct.zend_atomic_bool_s = type { i8 }
%struct._zval_struct = type { %union._zend_value, %union.anon, %union.anon.2 }
%union._zend_value = type { i64 }
%union.anon = type { i32 }
%union.anon.2 = type { i32 }
%struct._zend_stack = type { i32, i32, i32, ptr }
%struct._zend_objects_store = type { ptr, i32, i32, i32 }
%struct._zend_lazy_objects_store = type { %struct._zend_array }
%struct._HashTableIterator = type { ptr, i32, i32 }
%union._zend_function = type { %struct._zend_op_array }
%struct._zend_op_array = type { i8, [3 x i8], i32, ptr, ptr, ptr, i32, i32, ptr, ptr, ptr, ptr, i32, ptr, i32, i32, i32, ptr, ptr, ptr, ptr, ptr, i32, i32, ptr, ptr, ptr, i32, i32, i32, i32, ptr, ptr, [6 x ptr] }
%struct._zend_op = type { ptr, %union._znode_op, %union._znode_op, %union._znode_op, i32, i32, i8, i8, i8, i8 }
%union._znode_op = type { i32 }
%struct._zend_array = type { %struct._zend_refcounted_h, %union.anon.4, i32, %union.anon.6, i32, i32, i32, i32, i64, ptr }
%struct._zend_refcounted_h = type { i32, %union.anon.3 }
%union.anon.3 = type { i32 }
%union.anon.4 = type { i32 }
%union.anon.6 = type { ptr }
%struct.zend_get_gc_buffer = type { ptr, ptr, ptr }
%struct._zend_call_stack = type { ptr, i64 }
%struct._zend_strtod_state = type { [8 x ptr], ptr, ptr }
%struct._zend_fiber_stack = type { ptr, i64 }
%struct._zend_fiber_context = type { ptr, ptr, ptr, ptr, ptr, i32, ptr, [6 x ptr] }
%struct.boost_context_data = type { ptr, ptr }
%struct._zend_fiber_transfer = type { ptr, %struct._zval_struct, i8 }

@executor_globals = external global %struct._zend_executor_globals, align 8
@zend_fiber_get_page_size.page_size = internal global i64 0, align 8

; Function Attrs: nounwind uwtable
define internal i64 @zend_fiber_get_page_size() #0 {
  %1 = load i64, ptr @zend_fiber_get_page_size.page_size, align 8, !tbaa !44
  %2 = icmp ne i64 %1, 0
  br i1 %2, label %15, label %3

3:                                                ; preds = %0
  %4 = call i64 @zend_get_page_size()
  store i64 %4, ptr @zend_fiber_get_page_size.page_size, align 8, !tbaa !44
  %5 = load i64, ptr @zend_fiber_get_page_size.page_size, align 8, !tbaa !44
  %6 = icmp ne i64 %5, 0
  br i1 %6, label %7, label %13

7:                                                ; preds = %3
  %8 = load i64, ptr @zend_fiber_get_page_size.page_size, align 8, !tbaa !44
  %9 = load i64, ptr @zend_fiber_get_page_size.page_size, align 8, !tbaa !44
  %10 = sub i64 %9, 1
  %11 = and i64 %8, %10
  %12 = icmp ne i64 %11, 0
  br i1 %12, label %13, label %14

13:                                               ; preds = %7, %3
  store i64 4096, ptr @zend_fiber_get_page_size.page_size, align 8, !tbaa !44
  br label %14

14:                                               ; preds = %13, %7
  br label %15

15:                                               ; preds = %14, %0
  %16 = load i64, ptr @zend_fiber_get_page_size.page_size, align 8, !tbaa !44
  ret i64 %16
}

; Function Attrs: nounwind uwtable
define internal void @zend_fiber_stack_free(ptr noundef %0) #0 {
  %2 = alloca ptr, align 8
  %3 = alloca i64, align 8
  %4 = alloca ptr, align 8
  store ptr %0, ptr %2, align 8, !tbaa !4
  call void @llvm.lifetime.start.p0(i64 8, ptr %3) #18
  %5 = call i64 @zend_fiber_get_page_size()
  store i64 %5, ptr %3, align 8, !tbaa !44
  call void @llvm.lifetime.start.p0(i64 8, ptr %4) #18
  %6 = load ptr, ptr %2, align 8, !tbaa !4
  %7 = getelementptr inbounds nuw %struct._zend_fiber_stack, ptr %6, i32 0, i32 0
  %8 = load ptr, ptr %7, align 8, !tbaa !45
  %9 = ptrtoint ptr %8 to i64
  %10 = load i64, ptr %3, align 8, !tbaa !44
  %11 = mul i64 1, %10
  %12 = sub i64 %9, %11
  %13 = inttoptr i64 %12 to ptr
  store ptr %13, ptr %4, align 8, !tbaa !50
  %14 = load ptr, ptr %4, align 8, !tbaa !50
  %15 = load ptr, ptr %2, align 8, !tbaa !4
  %16 = getelementptr inbounds nuw %struct._zend_fiber_stack, ptr %15, i32 0, i32 1
  %17 = load i64, ptr %16, align 8, !tbaa !47
  %18 = load i64, ptr %3, align 8, !tbaa !44
  %19 = mul i64 1, %18
  %20 = add i64 %17, %19
  %21 = call i32 @munmap(ptr noundef %14, i64 noundef %20) #18
  %22 = load ptr, ptr %2, align 8, !tbaa !4
  call void @_efree(ptr noundef %22)
  call void @llvm.lifetime.end.p0(i64 8, ptr %4) #18
  call void @llvm.lifetime.end.p0(i64 8, ptr %3) #18
  ret void
}

; Function Attrs: nounwind uwtable
define dso_local void @zend_fiber_destroy_context(ptr noundef %0) #0 {
  %2 = alloca ptr, align 8
  store ptr %0, ptr %2, align 8, !tbaa !49
  %3 = load ptr, ptr %2, align 8, !tbaa !49
  call void @zend_observer_fiber_destroy_notify(ptr noundef %3)
  %4 = load ptr, ptr %2, align 8, !tbaa !49
  %5 = getelementptr inbounds nuw %struct._zend_fiber_context, ptr %4, i32 0, i32 3
  %6 = load ptr, ptr %5, align 8, !tbaa !66
  %7 = icmp ne ptr %6, null
  br i1 %7, label %8, label %13

8:                                                ; preds = %1
  %9 = load ptr, ptr %2, align 8, !tbaa !49
  %10 = getelementptr inbounds nuw %struct._zend_fiber_context, ptr %9, i32 0, i32 3
  %11 = load ptr, ptr %10, align 8, !tbaa !66
  %12 = load ptr, ptr %2, align 8, !tbaa !49
  call void %11(ptr noundef %12)
  br label %13

13:                                               ; preds = %8, %1
  %14 = load ptr, ptr %2, align 8, !tbaa !49
  %15 = getelementptr inbounds nuw %struct._zend_fiber_context, ptr %14, i32 0, i32 4
  %16 = load ptr, ptr %15, align 8, !tbaa !51
  call void @zend_fiber_stack_free(ptr noundef %16)
  ret void
}

; Function Attrs: noreturn nounwind uwtable
define internal void @zend_fiber_trampoline(ptr %0, ptr %1) #5 {
  %3 = alloca %struct.boost_context_data, align 8
  %4 = alloca %struct._zend_fiber_transfer, align 8
  %5 = alloca ptr, align 8
  %6 = alloca ptr, align 8
  %7 = getelementptr inbounds nuw { ptr, ptr }, ptr %3, i32 0, i32 0
  store ptr %0, ptr %7, align 8
  %8 = getelementptr inbounds nuw { ptr, ptr }, ptr %3, i32 0, i32 1
  store ptr %1, ptr %8, align 8
  call void @llvm.lifetime.start.p0(i64 32, ptr %4) #18
  %9 = getelementptr inbounds nuw %struct.boost_context_data, ptr %3, i32 0, i32 1
  %10 = load ptr, ptr %9, align 8, !tbaa !57
  call void @llvm.memcpy.p0.p0.i64(ptr align 8 %4, ptr align 8 %10, i64 32, i1 false), !tbaa.struct !60
  call void @llvm.lifetime.start.p0(i64 8, ptr %5) #18
  %11 = getelementptr inbounds nuw %struct._zend_fiber_transfer, ptr %4, i32 0, i32 0
  %12 = load ptr, ptr %11, align 8, !tbaa !62
  store ptr %12, ptr %5, align 8, !tbaa !49
  %13 = getelementptr inbounds nuw %struct.boost_context_data, ptr %3, i32 0, i32 0
  %14 = load ptr, ptr %13, align 8, !tbaa !64
  %15 = load ptr, ptr %5, align 8, !tbaa !49
  %16 = getelementptr inbounds nuw %struct._zend_fiber_context, ptr %15, i32 0, i32 0
  store ptr %14, ptr %16, align 8, !tbaa !53
  %17 = load ptr, ptr %5, align 8, !tbaa !49
  %18 = getelementptr inbounds nuw %struct._zend_fiber_context, ptr %17, i32 0, i32 5
  %19 = load i32, ptr %18, align 8, !tbaa !56
  %20 = icmp eq i32 %19, 3
  br i1 %20, label %21, label %23

21:                                               ; preds = %2
  %22 = load ptr, ptr %5, align 8, !tbaa !49
  call void @zend_fiber_destroy_context(ptr noundef %22)
  br label %23

23:                                               ; preds = %21, %2
  call void @llvm.lifetime.start.p0(i64 8, ptr %6) #18
  %24 = load ptr, ptr getelementptr inbounds nuw (%struct._zend_executor_globals, ptr @executor_globals, i32 0, i32 73), align 8, !tbaa !65
  store ptr %24, ptr %6, align 8, !tbaa !49
  %25 = load ptr, ptr %6, align 8, !tbaa !49
  %26 = getelementptr inbounds nuw %struct._zend_fiber_context, ptr %25, i32 0, i32 2
  %27 = load ptr, ptr %26, align 8, !tbaa !55
  call void %27(ptr noundef %4)
  %28 = load ptr, ptr %6, align 8, !tbaa !49
  %29 = getelementptr inbounds nuw %struct._zend_fiber_context, ptr %28, i32 0, i32 5
  store i32 3, ptr %29, align 8, !tbaa !56
  call void @zend_fiber_switch_context(ptr noundef %4)
  call void @abort() #20
  unreachable
}