; Function Attrs: noreturn nounwind uwtable
define internal void @zend_fiber_trampoline(ptr %0, ptr readonly captures(none) %1) #9 {
  %3 = alloca %struct._zend_fiber_transfer, align 8
  call void @llvm.lifetime.start.p0(i64 32, ptr nonnull %3) #22
  call void @llvm.memcpy.p0.p0.i64(ptr noundef nonnull align 8 dereferenceable(32) %3, ptr noundef nonnull align 8 dereferenceable(32) %1, i64 32, i1 false), !tbaa.struct !54
  %4 = load ptr, ptr %3, align 8, !tbaa !57
  store ptr %0, ptr %4, align 8, !tbaa !50
  %5 = getelementptr inbounds nuw i8, ptr %4, i64 40
  %6 = load i32, ptr %5, align 8, !tbaa !53
  %7 = icmp eq i32 %6, 3
  br i1 %7, label %8, label %28

8:                                                ; preds = %2
  tail call void @zend_observer_fiber_destroy_notify(ptr noundef nonnull %4) #22
  %9 = getelementptr inbounds nuw i8, ptr %4, i64 24
  %10 = load ptr, ptr %9, align 8, !tbaa !59
  %.not.i = icmp eq ptr %10, null
  br i1 %.not.i, label %12, label %11

11:                                               ; preds = %8
  tail call void %10(ptr noundef nonnull %4) #22
  br label %12

12:                                               ; preds = %11, %8
  %13 = getelementptr inbounds nuw i8, ptr %4, i64 32
  %14 = load ptr, ptr %13, align 8, !tbaa !47
  %15 = load i64, ptr @zend_fiber_get_page_size.page_size, align 8, !tbaa !46
  %.not.i.i.i = icmp eq i64 %15, 0
  br i1 %.not.i.i.i, label %16, label %zend_fiber_destroy_context.exit

16:                                               ; preds = %12
  %17 = tail call i64 @zend_get_page_size() #22
  %18 = tail call range(i64 0, 65) i64 @llvm.ctpop.i64(i64 %17)
  %or.cond.i.i.i = icmp eq i64 %18, 1
  %spec.store.select.i.i.i = select i1 %or.cond.i.i.i, i64 %17, i64 4096
  store i64 %spec.store.select.i.i.i, ptr @zend_fiber_get_page_size.page_size, align 8
  br label %zend_fiber_destroy_context.exit

zend_fiber_destroy_context.exit:                  ; preds = %12, %16
  %19 = phi i64 [ %spec.store.select.i.i.i, %16 ], [ %15, %12 ]
  %20 = load ptr, ptr %14, align 8, !tbaa !42
  %21 = ptrtoint ptr %20 to i64
  %22 = sub i64 %21, %19
  %23 = inttoptr i64 %22 to ptr
  %24 = getelementptr inbounds nuw i8, ptr %14, i64 8
  %25 = load i64, ptr %24, align 8, !tbaa !44
  %26 = add i64 %25, %19
  %27 = tail call i32 @munmap(ptr noundef %23, i64 noundef %26) #22
  tail call void @_efree(ptr noundef nonnull %14) #22
  br label %28

28:                                               ; preds = %zend_fiber_destroy_context.exit, %2
  %29 = load ptr, ptr getelementptr inbounds nuw (i8, ptr @executor_globals, i64 1768), align 8, !tbaa !60
  %30 = getelementptr inbounds nuw i8, ptr %29, i64 16
  %31 = load ptr, ptr %30, align 8, !tbaa !52
  call void %31(ptr noundef nonnull %3) #22
  %32 = getelementptr inbounds nuw i8, ptr %29, i64 40
  store i32 3, ptr %32, align 8, !tbaa !53
  call void @zend_fiber_switch_context(ptr noundef nonnull %3)
  call void @abort() #24
  unreachable
}